target datalayout = "e-m:e-p270:32:32-p271:32:32-p272:64:64-i64:64-i128:128-f80:128-n8:16:32:64-S128"
target triple = "x86_64-pc-linux-gnu"

%struct._zend_executor_globals = type { %struct._zval_struct, %struct._zval_struct, [32 x ptr], ptr, ptr, %struct._zend_array, %struct._zend_array, ptr, i32, i8, %struct._zval_struct, i32, ptr, ptr, ptr, ptr, ptr, ptr, i64, ptr, ptr, i32, ptr, i32, i64, i32, i32, i32, i8, i8, %struct.zend_atomic_bool_s, %struct.zend_atomic_bool_s, ptr, i64, ptr, ptr, %struct._zend_array, %struct._zend_array, i32, i8, %struct._zval_struct, %struct._zval_struct, %struct._zend_stack, %struct._zend_stack, %struct._zend_stack, ptr, i32, i32, i64, ptr, ptr, ptr, %struct._zend_objects_store, %struct._zend_lazy_objects_store, ptr, ptr, ptr, [3 x %struct._zend_op], ptr, i8, i8, i64, i32, i32, ptr, [16 x %struct._HashTableIterator], ptr, %union._zend_function, %struct._zend_op, %struct._zend_array, i64, %struct.zend_get_gc_buffer, ptr, ptr, ptr, i64, i8, i32, ptr, ptr, i64, %struct._zend_call_stack, i64, i64, %struct._zend_strtod_state, [6 x ptr] }
%struct.zend_atomic_bool_s = type { i8 }
%struct._zval_struct = type { %union._zend_value, %union.anon, %union.anon.2 }
%union._zend_value = type { i64 }
%union.anon = type { i32 }
%union.anon.2 = type { i32 }
%struct._zend_stack = type { i32, i32, i32, ptr }
%struct._zend_objects_store = type { ptr, i32, i32, i32 }
%struct._zend_lazy_objects_store = type { %struct._zend_array }
%struct._HashTableIterator = type { ptr, i32, i32 }
%union._zend_function = type { %struct._zend_op_array }
%struct._zend_op_array = type { i8, [3 x i8], i32, ptr, ptr, ptr, i32, i32, ptr, ptr, ptr, ptr, i32, ptr, i32, i32, i32, ptr, ptr, ptr, ptr, ptr, i32, i32, ptr, ptr, ptr, i32, i32, i32, i32, ptr, ptr, [6 x ptr] }
%struct._zend_op = type { ptr, %union._znode_op, %union._znode_op, %union._znode_op, i32, i32, i8, i8, i8, i8 }
%union._znode_op = type { i32 }
%struct._zend_array = type { %struct._zend_refcounted_h, %union.anon.4, i32, %union.anon.6, i32, i32, i32, i32, i64, ptr }
%struct._zend_refcounted_h = type { i32, %union.anon.3 }
%union.anon.3 = type { i32 }
%union.anon.4 = type { i32 }
%union.anon.6 = type { ptr }
%struct.zend_get_gc_buffer = type { ptr, ptr, ptr }
%struct._zend_call_stack = type { ptr, i64 }
%struct._zend_strtod_state = type { [8 x ptr], ptr, ptr }
%struct._zend_execute_data = type { ptr, ptr, ptr, ptr, %struct._zval_struct, ptr, ptr, ptr, ptr }
%struct._spl_dllist_object = type { ptr, ptr, i32, i32, ptr, ptr, ptr, ptr, ptr, ptr, %struct._zend_object }
%struct._zend_object = type { %struct._zend_refcounted_h, i32, i32, ptr, ptr, ptr, [1 x %struct._zval_struct] }
%struct._spl_ptr_llist = type { ptr, ptr, i32 }
%struct._spl_ptr_llist_element = type { ptr, ptr, %struct._zval_struct }

@executor_globals = external global %struct._zend_executor_globals, align 8
@.str.4 = private unnamed_addr constant [2 x i8] c"l\00", align 1
@spl_ce_OutOfRangeException = external global ptr, align 8
@.str.6 = private unnamed_addr constant [16 x i8] c"is out of range\00", align 1
@.str.7 = private unnamed_addr constant [21 x i8] c"is an invalid offset\00", align 1

; Function Attrs: nounwind uwtable
define internal ptr @spl_ptr_llist_offset(ptr noundef %0, i64 noundef %1, i32 noundef %2) #0 {
  %4 = alloca ptr, align 8
  %5 = alloca i64, align 8
  %6 = alloca i32, align 4
  %7 = alloca ptr, align 8
  %8 = alloca i32, align 4
  store ptr %0, ptr %4, align 8, !tbaa !55
  store i64 %1, ptr %5, align 8, !tbaa !68
  store i32 %2, ptr %6, align 4, !tbaa !64
  call void @llvm.lifetime.start.p0(i64 8, ptr %7) #14
  call void @llvm.lifetime.start.p0(i64 4, ptr %8) #14
  store i32 0, ptr %8, align 4, !tbaa !64
  %9 = load i32, ptr %6, align 4, !tbaa !64
  %10 = icmp ne i32 %9, 0
  br i1 %10, label %11, label %15

11:                                               ; preds = %3
  %12 = load ptr, ptr %4, align 8, !tbaa !55
  %13 = getelementptr inbounds nuw %struct._spl_ptr_llist, ptr %12, i32 0, i32 1
  %14 = load ptr, ptr %13, align 8, !tbaa !57
  store ptr %14, ptr %7, align 8, !tbaa !56
  br label %19

15:                                               ; preds = %3
  %16 = load ptr, ptr %4, align 8, !tbaa !55
  %17 = getelementptr inbounds nuw %struct._spl_ptr_llist, ptr %16, i32 0, i32 0
  %18 = load ptr, ptr %17, align 8, !tbaa !65
  store ptr %18, ptr %7, align 8, !tbaa !56
  br label %19

19:                                               ; preds = %15, %11
  br label %20

20:                                               ; preds = %43, %19
  %21 = load ptr, ptr %7, align 8, !tbaa !56
  %22 = icmp ne ptr %21, null
  br i1 %22, label %23, label %28

23:                                               ; preds = %20
  %24 = load i32, ptr %8, align 4, !tbaa !64
  %25 = sext i32 %24 to i64
  %26 = load i64, ptr %5, align 8, !tbaa !68
  %27 = icmp slt i64 %25, %26
  br label %28

28:                                               ; preds = %23, %20
  %29 = phi i1 [ false, %20 ], [ %27, %23 ]
  br i1 %29, label %30, label %44

30:                                               ; preds = %28
  %31 = load i32, ptr %8, align 4, !tbaa !64
  %32 = add nsw i32 %31, 1
  store i32 %32, ptr %8, align 4, !tbaa !64
  %33 = load i32, ptr %6, align 4, !tbaa !64
  %34 = icmp ne i32 %33, 0
  br i1 %34, label %35, label %39

35:                                               ; preds = %30
  %36 = load ptr, ptr %7, align 8, !tbaa !56
  %37 = getelementptr inbounds nuw %struct._spl_ptr_llist_element, ptr %36, i32 0, i32 0
  %38 = load ptr, ptr %37, align 8, !tbaa !59
  store ptr %38, ptr %7, align 8, !tbaa !56
  br label %43

39:                                               ; preds = %30
  %40 = load ptr, ptr %7, align 8, !tbaa !56
  %41 = getelementptr inbounds nuw %struct._spl_ptr_llist_element, ptr %40, i32 0, i32 1
  %42 = load ptr, ptr %41, align 8, !tbaa !61
  store ptr %42, ptr %7, align 8, !tbaa !56
  br label %43

43:                                               ; preds = %39, %35
  br label %20

44:                                               ; preds = %28
  %45 = load ptr, ptr %7, align 8, !tbaa !56
  call void @llvm.lifetime.end.p0(i64 4, ptr %8) #14
  call void @llvm.lifetime.end.p0(i64 8, ptr %7) #14
  ret ptr %45
}

; Function Attrs: inlinehint nounwind uwtable
define internal ptr @spl_dllist_from_obj(ptr noundef %0) #4 {
  %2 = alloca ptr, align 8
  store ptr %0, ptr %2, align 8, !tbaa !54
  %3 = load ptr, ptr %2, align 8, !tbaa !54
  %4 = getelementptr inbounds i8, ptr %3, i64 -72
  ret ptr %4
}

; Function Attrs: nounwind uwtable
define hidden void @zim_SplDoublyLinkedList_offsetUnset(ptr noundef %0, ptr noundef %1) #0 {
  %3 = alloca ptr, align 8
  %4 = alloca ptr, align 8
  %5 = alloca i64, align 8
  %6 = alloca ptr, align 8
  %7 = alloca ptr, align 8
  %8 = alloca ptr, align 8
  %9 = alloca i32, align 4
  store ptr %0, ptr %3, align 8, !tbaa !4
  store ptr %1, ptr %4, align 8, !tbaa !9
  call void @llvm.lifetime.start.p0(i64 8, ptr %5) #14
  call void @llvm.lifetime.start.p0(i64 8, ptr %6) #14
  call void @llvm.lifetime.start.p0(i64 8, ptr %7) #14
  call void @llvm.lifetime.start.p0(i64 8, ptr %8) #14
  %10 = load ptr, ptr %3, align 8, !tbaa !4
  %11 = getelementptr inbounds nuw %struct._zend_execute_data, ptr %10, i32 0, i32 4
  %12 = getelementptr inbounds nuw %struct._zval_struct, ptr %11, i32 0, i32 2
  %13 = load i32, ptr %12, align 4, !tbaa !11
  %14 = call i32 (i32, ptr, ...) @zend_parse_parameters(i32 noundef %13, ptr noundef @.str.4, ptr noundef %5)
  %15 = icmp eq i32 %14, -1
  br i1 %15, label %16, label %22

16:                                               ; preds = %2
  br label %17

17:                                               ; preds = %16
  %18 = load ptr, ptr getelementptr inbounds nuw (%struct._zend_executor_globals, ptr @executor_globals, i32 0, i32 54), align 8, !tbaa !12
  %19 = icmp ne ptr %18, null
  call void @llvm.assume(i1 %19)
  store i32 1, ptr %9, align 4
  br label %159

20:                                               ; No predecessors!
  br label %21

21:                                               ; preds = %20
  br label %22

22:                                               ; preds = %21, %2
  %23 = load ptr, ptr %3, align 8, !tbaa !4
  %24 = getelementptr inbounds nuw %struct._zend_execute_data, ptr %23, i32 0, i32 4
  %25 = getelementptr inbounds nuw %struct._zval_struct, ptr %24, i32 0, i32 0
  %26 = load ptr, ptr %25, align 8, !tbaa !11
  %27 = call ptr @spl_dllist_from_obj(ptr noundef %26)
  store ptr %27, ptr %6, align 8, !tbaa !45
  %28 = load ptr, ptr %6, align 8, !tbaa !45
  %29 = getelementptr inbounds nuw %struct._spl_dllist_object, ptr %28, i32 0, i32 0
  %30 = load ptr, ptr %29, align 8, !tbaa !47
  store ptr %30, ptr %8, align 8, !tbaa !55
  %31 = load i64, ptr %5, align 8, !tbaa !68
  %32 = icmp slt i64 %31, 0
  br i1 %32, label %42, label %33

33:                                               ; preds = %22
  %34 = load i64, ptr %5, align 8, !tbaa !68
  %35 = load ptr, ptr %6, align 8, !tbaa !45
  %36 = getelementptr inbounds nuw %struct._spl_dllist_object, ptr %35, i32 0, i32 0
  %37 = load ptr, ptr %36, align 8, !tbaa !47
  %38 = getelementptr inbounds nuw %struct._spl_ptr_llist, ptr %37, i32 0, i32 2
  %39 = load i32, ptr %38, align 8, !tbaa !66
  %40 = sext i32 %39 to i64
  %41 = icmp sge i64 %34, %40
  br i1 %41, label %42, label %49

42:                                               ; preds = %33, %22
  %43 = load ptr, ptr @spl_ce_OutOfRangeException, align 8, !tbaa !67
  call void (ptr, i32, ptr, ...) @zend_argument_error(ptr noundef %43, i32 noundef 1, ptr noundef @.str.6)
  br label %44

44:                                               ; preds = %42
  %45 = load ptr, ptr getelementptr inbounds nuw (%struct._zend_executor_globals, ptr @executor_globals, i32 0, i32 54), align 8, !tbaa !12
  %46 = icmp ne ptr %45, null
  call void @llvm.assume(i1 %46)
  store i32 1, ptr %9, align 4
  br label %159

47:                                               ; No predecessors!
  br label %48

48:                                               ; preds = %47
  br label %49

49:                                               ; preds = %48, %33
  %50 = load ptr, ptr %6, align 8, !tbaa !45
  %51 = getelementptr inbounds nuw %struct._spl_dllist_object, ptr %50, i32 0, i32 0
  %52 = load ptr, ptr %51, align 8, !tbaa !47
  %53 = load i64, ptr %5, align 8, !tbaa !68
  %54 = load ptr, ptr %6, align 8, !tbaa !45
  %55 = getelementptr inbounds nuw %struct._spl_dllist_object, ptr %54, i32 0, i32 3
  %56 = load i32, ptr %55, align 4, !tbaa !73
  %57 = and i32 %56, 2
  %58 = call ptr @spl_ptr_llist_offset(ptr noundef %52, i64 noundef %53, i32 noundef %57)
  store ptr %58, ptr %7, align 8, !tbaa !56
  %59 = load ptr, ptr %7, align 8, !tbaa !56
  %60 = icmp ne ptr %59, null
  br i1 %60, label %61, label %151

61:                                               ; preds = %49
  %62 = load ptr, ptr %7, align 8, !tbaa !56
  %63 = getelementptr inbounds nuw %struct._spl_ptr_llist_element, ptr %62, i32 0, i32 0
  %64 = load ptr, ptr %63, align 8, !tbaa !59
  %65 = icmp ne ptr %64, null
  br i1 %65, label %66, label %74

66:                                               ; preds = %61
  %67 = load ptr, ptr %7, align 8, !tbaa !56
  %68 = getelementptr inbounds nuw %struct._spl_ptr_llist_element, ptr %67, i32 0, i32 1
  %69 = load ptr, ptr %68, align 8, !tbaa !61
  %70 = load ptr, ptr %7, align 8, !tbaa !56
  %71 = getelementptr inbounds nuw %struct._spl_ptr_llist_element, ptr %70, i32 0, i32 0
  %72 = load ptr, ptr %71, align 8, !tbaa !59
  %73 = getelementptr inbounds nuw %struct._spl_ptr_llist_element, ptr %72, i32 0, i32 1
  store ptr %69, ptr %73, align 8, !tbaa !61
  br label %74

74:                                               ; preds = %66, %61
  %75 = load ptr, ptr %7, align 8, !tbaa !56
  %76 = getelementptr inbounds nuw %struct._spl_ptr_llist_element, ptr %75, i32 0, i32 1
  %77 = load ptr, ptr %76, align 8, !tbaa !61
  %78 = icmp ne ptr %77, null
  br i1 %78, label %79, label %87

79:                                               ; preds = %74
  %80 = load ptr, ptr %7, align 8, !tbaa !56
  %81 = getelementptr inbounds nuw %struct._spl_ptr_llist_element, ptr %80, i32 0, i32 0
  %82 = load ptr, ptr %81, align 8, !tbaa !59
  %83 = load ptr, ptr %7, align 8, !tbaa !56
  %84 = getelementptr inbounds nuw %struct._spl_ptr_llist_element, ptr %83, i32 0, i32 1
  %85 = load ptr, ptr %84, align 8, !tbaa !61
  %86 = getelementptr inbounds nuw %struct._spl_ptr_llist_element, ptr %85, i32 0, i32 0
  store ptr %82, ptr %86, align 8, !tbaa !59
  br label %87

87:                                               ; preds = %79, %74
  %88 = load ptr, ptr %7, align 8, !tbaa !56
  %89 = load ptr, ptr %8, align 8, !tbaa !55
  %90 = getelementptr inbounds nuw %struct._spl_ptr_llist, ptr %89, i32 0, i32 0
  %91 = load ptr, ptr %90, align 8, !tbaa !65
  %92 = icmp eq ptr %88, %91
  br i1 %92, label %93, label %99

93:                                               ; preds = %87
  %94 = load ptr, ptr %7, align 8, !tbaa !56
  %95 = getelementptr inbounds nuw %struct._spl_ptr_llist_element, ptr %94, i32 0, i32 1
  %96 = load ptr, ptr %95, align 8, !tbaa !61
  %97 = load ptr, ptr %8, align 8, !tbaa !55
  %98 = getelementptr inbounds nuw %struct._spl_ptr_llist, ptr %97, i32 0, i32 0
  store ptr %96, ptr %98, align 8, !tbaa !65
  br label %99

99:                                               ; preds = %93, %87
  %100 = load ptr, ptr %7, align 8, !tbaa !56
  %101 = load ptr, ptr %8, align 8, !tbaa !55
  %102 = getelementptr inbounds nuw %struct._spl_ptr_llist, ptr %101, i32 0, i32 1
  %103 = load ptr, ptr %102, align 8, !tbaa !57
  %104 = icmp eq ptr %100, %103
  br i1 %104, label %105, label %111

105:                                              ; preds = %99
  %106 = load ptr, ptr %7, align 8, !tbaa !56
  %107 = getelementptr inbounds nuw %struct._spl_ptr_llist_element, ptr %106, i32 0, i32 0
  %108 = load ptr, ptr %107, align 8, !tbaa !59
  %109 = load ptr, ptr %8, align 8, !tbaa !55
  %110 = getelementptr inbounds nuw %struct._spl_ptr_llist, ptr %109, i32 0, i32 1
  store ptr %108, ptr %110, align 8, !tbaa !57
  br label %111

111:                                              ; preds = %105, %99
  %112 = load ptr, ptr %8, align 8, !tbaa !55
  %113 = getelementptr inbounds nuw %struct._spl_ptr_llist, ptr %112, i32 0, i32 2
  %114 = load i32, ptr %113, align 8, !tbaa !66
  %115 = add nsw i32 %114, -1
  store i32 %115, ptr %113, align 8, !tbaa !66
  %116 = load ptr, ptr %6, align 8, !tbaa !45
  %117 = getelementptr inbounds nuw %struct._spl_dllist_object, ptr %116, i32 0, i32 1
  %118 = load ptr, ptr %117, align 8, !tbaa !80
  %119 = load ptr, ptr %7, align 8, !tbaa !56
  %120 = icmp eq ptr %118, %119
  br i1 %120, label %121, label %133

121:                                              ; preds = %111
  %122 = load ptr, ptr %7, align 8, !tbaa !56
  %123 = getelementptr inbounds nuw %struct._spl_ptr_llist_element, ptr %122, i32 0, i32 2
  %124 = getelementptr inbounds nuw %struct._zval_struct, ptr %123, i32 0, i32 2
  %125 = load i32, ptr %124, align 4, !tbaa !11
  %126 = add i32 %125, -1
  store i32 %126, ptr %124, align 4, !tbaa !11
  %127 = icmp ne i32 %126, 0
  br i1 %127, label %130, label %128

128:                                              ; preds = %121
  %129 = load ptr, ptr %7, align 8, !tbaa !56
  call void @_efree(ptr noundef %129)
  br label %130

130:                                              ; preds = %128, %121
  %131 = load ptr, ptr %6, align 8, !tbaa !45
  %132 = getelementptr inbounds nuw %struct._spl_dllist_object, ptr %131, i32 0, i32 1
  store ptr null, ptr %132, align 8, !tbaa !80
  br label %133

133:                                              ; preds = %130, %111
  %134 = load ptr, ptr %7, align 8, !tbaa !56
  %135 = getelementptr inbounds nuw %struct._spl_ptr_llist_element, ptr %134, i32 0, i32 2
  call void @zval_ptr_dtor(ptr noundef %135)
  br label %136

136:                                              ; preds = %133
  %137 = load ptr, ptr %7, align 8, !tbaa !56
  %138 = getelementptr inbounds nuw %struct._spl_ptr_llist_element, ptr %137, i32 0, i32 2
  %139 = getelementptr inbounds nuw %struct._zval_struct, ptr %138, i32 0, i32 1
  store i32 0, ptr %139, align 8, !tbaa !11
  br label %140

140:                                              ; preds = %136
  br label %141

141:                                              ; preds = %140
  %142 = load ptr, ptr %7, align 8, !tbaa !56
  %143 = getelementptr inbounds nuw %struct._spl_ptr_llist_element, ptr %142, i32 0, i32 2
  %144 = getelementptr inbounds nuw %struct._zval_struct, ptr %143, i32 0, i32 2
  %145 = load i32, ptr %144, align 4, !tbaa !11
  %146 = add i32 %145, -1
  store i32 %146, ptr %144, align 4, !tbaa !11
  %147 = icmp ne i32 %146, 0
  br i1 %147, label %150, label %148

148:                                              ; preds = %141
  %149 = load ptr, ptr %7, align 8, !tbaa !56
  call void @_efree(ptr noundef %149)
  br label %150

150:                                              ; preds = %148, %141
  br label %158

151:                                              ; preds = %49
  %152 = load ptr, ptr @spl_ce_OutOfRangeException, align 8, !tbaa !67
  call void (ptr, i32, ptr, ...) @zend_argument_error(ptr noundef %152, i32 noundef 1, ptr noundef @.str.7)
  br label %153

153:                                              ; preds = %151
  %154 = load ptr, ptr getelementptr inbounds nuw (%struct._zend_executor_globals, ptr @executor_globals, i32 0, i32 54), align 8, !tbaa !12
  %155 = icmp ne ptr %154, null
  call void @llvm.assume(i1 %155)
  store i32 1, ptr %9, align 4
  br label %159

156:                                              ; No predecessors!
  br label %157

157:                                              ; preds = %156
  br label %158

158:                                              ; preds = %157, %150
  store i32 0, ptr %9, align 4
  br label %159

159:                                              ; preds = %158, %153, %44, %17
  call void @llvm.lifetime.end.p0(i64 8, ptr %8) #14
  call void @llvm.lifetime.end.p0(i64 8, ptr %7) #14
  call void @llvm.lifetime.end.p0(i64 8, ptr %6) #14
  call void @llvm.lifetime.end.p0(i64 8, ptr %5) #14
  %160 = load i32, ptr %9, align 4
  switch i32 %160, label %162 [
    i32 0, label %161
    i32 1, label %161
  ]

161:                                              ; preds = %159, %159
  ret void

162:                                              ; preds = %159
  unreachable
}