; Function Attrs: nounwind uwtable
define hidden void @zim_SplDoublyLinkedList_offsetUnset(ptr noundef readonly captures(none) %0, ptr readnone captures(none) %1) #0 {
  %3 = alloca i64, align 8
  call void @llvm.lifetime.start.p0(i64 8, ptr nonnull %3) #13
  %4 = getelementptr inbounds nuw i8, ptr %0, i64 44
  %5 = load i32, ptr %4, align 4, !tbaa !4
  %6 = call i32 (i32, ptr, ...) @zend_parse_parameters(i32 noundef %5, ptr noundef nonnull @.str.4, ptr noundef nonnull %3) #13
  %7 = icmp eq i32 %6, -1
  br i1 %7, label %8, label %11

8:                                                ; preds = %2
  %9 = load ptr, ptr getelementptr inbounds nuw (i8, ptr @executor_globals, i64 960), align 8, !tbaa !7
  %10 = icmp ne ptr %9, null
  call void @llvm.assume(i1 %10)
  br label %76

11:                                               ; preds = %2
  %12 = getelementptr inbounds nuw i8, ptr %0, i64 32
  %13 = load ptr, ptr %12, align 8, !tbaa !4
  %14 = getelementptr inbounds i8, ptr %13, i64 -72
  %15 = load ptr, ptr %14, align 8, !tbaa !43
  %16 = load i64, ptr %3, align 8, !tbaa !65
  %17 = icmp slt i64 %16, 0
  br i1 %17, label %22, label %18

18:                                               ; preds = %11
  %19 = getelementptr inbounds nuw i8, ptr %15, i64 16
  %20 = load i32, ptr %19, align 8, !tbaa !58
  %21 = sext i32 %20 to i64
  %.not = icmp slt i64 %16, %21
  br i1 %.not, label %26, label %22

22:                                               ; preds = %18, %11
  %23 = load ptr, ptr @spl_ce_OutOfRangeException, align 8, !tbaa !60
  call void (ptr, i32, ptr, ...) @zend_argument_error(ptr noundef %23, i32 noundef 1, ptr noundef nonnull @.str.6) #13
  %24 = load ptr, ptr getelementptr inbounds nuw (i8, ptr @executor_globals, i64 960), align 8, !tbaa !7
  %25 = icmp ne ptr %24, null
  call void @llvm.assume(i1 %25)
  br label %76

26:                                               ; preds = %18
  %27 = getelementptr inbounds i8, ptr %13, i64 -52
  %28 = load i32, ptr %27, align 4, !tbaa !66
  %29 = shl i32 %28, 2
  %30 = and i32 %29, 8
  %.010.in.idx.i = zext nneg i32 %30 to i64
  %.010.in.i = getelementptr inbounds nuw i8, ptr %15, i64 %.010.in.idx.i
  %.111.i = load ptr, ptr %.010.in.i, align 8, !tbaa !67
  %31 = icmp ne ptr %.111.i, null
  %32 = icmp ne i64 %16, 0
  %33 = and i1 %32, %31
  br i1 %33, label %.lr.ph.i, label %spl_ptr_llist_offset.exit

.lr.ph.i:                                         ; preds = %26
  %34 = xor i32 %30, 8
  %.2.in.idx.i = zext nneg i32 %34 to i64
  br label %35

35:                                               ; preds = %35, %.lr.ph.i
  %indvars.iv.i = phi i64 [ 0, %.lr.ph.i ], [ %indvars.iv.next.i, %35 ]
  %.113.i = phi ptr [ %.111.i, %.lr.ph.i ], [ %.1.i, %35 ]
  %indvars.iv.next.i = add nuw nsw i64 %indvars.iv.i, 1
  %.2.in.i = getelementptr inbounds nuw i8, ptr %.113.i, i64 %.2.in.idx.i
  %.1.i = load ptr, ptr %.2.in.i, align 8, !tbaa !67
  %36 = icmp ne ptr %.1.i, null
  %37 = icmp sgt i64 %16, %indvars.iv.next.i
  %38 = select i1 %36, i1 %37, i1 false
  br i1 %38, label %35, label %spl_ptr_llist_offset.exit

spl_ptr_llist_offset.exit:                        ; preds = %35, %26
  %.1.lcssa.i = phi ptr [ %.111.i, %26 ], [ %.1.i, %35 ]
  %.not34 = icmp eq ptr %.1.lcssa.i, null
  br i1 %.not34, label %72, label %39

39:                                               ; preds = %spl_ptr_llist_offset.exit
  %40 = load ptr, ptr %.1.lcssa.i, align 8, !tbaa !53
  %.not35 = icmp eq ptr %40, null
  %.phi.trans.insert = getelementptr inbounds nuw i8, ptr %.1.lcssa.i, i64 8
  %.pre = load ptr, ptr %.phi.trans.insert, align 8, !tbaa !55
  br i1 %.not35, label %._crit_edge, label %41

41:                                               ; preds = %39
  %42 = getelementptr inbounds nuw i8, ptr %40, i64 8
  store ptr %.pre, ptr %42, align 8, !tbaa !55
  br label %._crit_edge

._crit_edge:                                      ; preds = %39, %41
  %.not36 = icmp eq ptr %.pre, null
  br i1 %.not36, label %44, label %43

43:                                               ; preds = %._crit_edge
  store ptr %40, ptr %.pre, align 8, !tbaa !53
  br label %44

44:                                               ; preds = %43, %._crit_edge
  %45 = load ptr, ptr %15, align 8, !tbaa !57
  %46 = icmp eq ptr %.1.lcssa.i, %45
  br i1 %46, label %47, label %48

47:                                               ; preds = %44
  store ptr %.pre, ptr %15, align 8, !tbaa !57
  br label %48

48:                                               ; preds = %47, %44
  %49 = getelementptr inbounds nuw i8, ptr %15, i64 8
  %50 = load ptr, ptr %49, align 8, !tbaa !51
  %51 = icmp eq ptr %.1.lcssa.i, %50
  br i1 %51, label %52, label %54

52:                                               ; preds = %48
  %53 = load ptr, ptr %.1.lcssa.i, align 8, !tbaa !53
  store ptr %53, ptr %49, align 8, !tbaa !51
  br label %54

54:                                               ; preds = %52, %48
  %55 = add nsw i32 %20, -1
  store i32 %55, ptr %19, align 8, !tbaa !58
  %56 = getelementptr inbounds i8, ptr %13, i64 -64
  %57 = load ptr, ptr %56, align 8, !tbaa !71
  %58 = icmp eq ptr %57, %.1.lcssa.i
  br i1 %58, label %59, label %65

59:                                               ; preds = %54
  %60 = getelementptr inbounds nuw i8, ptr %.1.lcssa.i, i64 28
  %61 = load i32, ptr %60, align 4, !tbaa !4
  %62 = add i32 %61, -1
  store i32 %62, ptr %60, align 4, !tbaa !4
  %.not37 = icmp eq i32 %62, 0
  br i1 %.not37, label %63, label %64

63:                                               ; preds = %59
  call void @_efree(ptr noundef nonnull %.1.lcssa.i) #13
  br label %64

64:                                               ; preds = %63, %59
  store ptr null, ptr %56, align 8, !tbaa !71
  br label %65

65:                                               ; preds = %64, %54
  %66 = getelementptr inbounds nuw i8, ptr %.1.lcssa.i, i64 16
  call void @zval_ptr_dtor(ptr noundef nonnull %66) #13
  %67 = getelementptr inbounds nuw i8, ptr %.1.lcssa.i, i64 24
  store i32 0, ptr %67, align 8, !tbaa !4
  %68 = getelementptr inbounds nuw i8, ptr %.1.lcssa.i, i64 28
  %69 = load i32, ptr %68, align 4, !tbaa !4
  %70 = add i32 %69, -1
  store i32 %70, ptr %68, align 4, !tbaa !4
  %.not38 = icmp eq i32 %70, 0
  br i1 %.not38, label %71, label %76

71:                                               ; preds = %65
  call void @_efree(ptr noundef nonnull %.1.lcssa.i) #13
  br label %76

72:                                               ; preds = %spl_ptr_llist_offset.exit
  %73 = load ptr, ptr @spl_ce_OutOfRangeException, align 8, !tbaa !60
  call void (ptr, i32, ptr, ...) @zend_argument_error(ptr noundef %73, i32 noundef 1, ptr noundef nonnull @.str.7) #13
  %74 = load ptr, ptr getelementptr inbounds nuw (i8, ptr @executor_globals, i64 960), align 8, !tbaa !7
  %75 = icmp ne ptr %74, null
  call void @llvm.assume(i1 %75)
  br label %76

76:                                               ; preds = %71, %65, %72, %22, %8
  call void @llvm.lifetime.end.p0(i64 8, ptr nonnull %3) #13
  ret void
}